(dp0
S'mem'
p1
cnumpy.core.multiarray
_reconstruct
p2
(cnumpy
ndarray
p3
(I0
tp4
S'b'
p5
tp6
Rp7
(I1
(I1
I4
tp8
cnumpy
dtype
p9
(S'f8'
p10
I0
I1
tp11
Rp12
(I3
S'<'
p13
NNNI-1
I-1
I0
tp14
bI00
S'\x00\x00\x00\x00\xe0hh@\x00\x00\x00\x00\xb0\xbcx@\x00\x00\x00\x00h5\x83@\x00\x00\x00\x00(\x9d\x8a@'
p15
tp16
bsS'time'
p17
(lp18
F1266.2212629999997
aF4885.890889
aF11307.422547000002
aF21454.332397999995
asS'N'
p19
(lp20
I500
aI1000
aI1500
aI2000
as.